; Function Attrs: nounwind uwtable
define noundef i32 @LzmaDec_Allocate(ptr nocapture noundef %0, ptr nocapture noundef readonly %1, i32 noundef %2, ptr noundef %3) local_unnamed_addr #4 {
  %5 = icmp ult i32 %2, 5
  br i1 %5, label %LzmaDec_AllocateProbs2.exit, label %6

6:                                                ; preds = %4
  %7 = getelementptr inbounds i8, ptr %1, i64 1
  %8 = load i32, ptr %7, align 1
  %spec.store.select.i = tail call i32 @llvm.umax.i32(i32 %8, i32 4096)
  %9 = load i8, ptr %1, align 1
  %10 = icmp ugt i8 %9, -32
  br i1 %10, label %LzmaDec_AllocateProbs2.exit, label %11

11:                                               ; preds = %6
  %12 = urem i8 %9, 9
  %13 = zext nneg i8 %12 to i32
  %14 = udiv i8 %9, 9
  %15 = udiv i8 %9, 45
  %.zext.i = zext nneg i8 %15 to i32
  %16 = urem i8 %14, 5
  %.zext19.i = zext nneg i8 %16 to i32
  %17 = add nuw nsw i32 %.zext19.i, %13
  %18 = shl nuw nsw i32 768, %17
  %19 = add nuw nsw i32 %18, 1846
  %20 = getelementptr inbounds i8, ptr %0, i64 16
  %21 = load ptr, ptr %20, align 8
  %22 = icmp eq ptr %21, null
  br i1 %22, label %26, label %23

23:                                               ; preds = %11
  %24 = getelementptr inbounds i8, ptr %0, i64 104
  %25 = load i32, ptr %24, align 8
  %.not.i = icmp eq i32 %19, %25
  br i1 %.not.i, label %35, label %26

26:                                               ; preds = %23, %11
  %27 = getelementptr inbounds i8, ptr %3, i64 8
  %28 = load ptr, ptr %27, align 8
  tail call void %28(ptr noundef %3, ptr noundef %21) #7
  store ptr null, ptr %20, align 8
  %29 = load ptr, ptr %3, align 8
  %30 = shl nuw nsw i32 %19, 1
  %31 = zext nneg i32 %30 to i64
  %32 = tail call ptr %29(ptr noundef nonnull %3, i64 noundef %31) #7
  store ptr %32, ptr %20, align 8
  %33 = getelementptr inbounds i8, ptr %0, i64 104
  store i32 %19, ptr %33, align 8
  %34 = icmp eq ptr %32, null
  br i1 %34, label %LzmaDec_AllocateProbs2.exit, label %35

35:                                               ; preds = %23, %26
  %36 = zext i32 %spec.store.select.i to i64
  %37 = getelementptr inbounds i8, ptr %0, i64 24
  %38 = load ptr, ptr %37, align 8
  %39 = icmp eq ptr %38, null
  br i1 %39, label %43, label %40

40:                                               ; preds = %35
  %41 = getelementptr inbounds i8, ptr %0, i64 56
  %42 = load i64, ptr %41, align 8
  %.not26 = icmp eq i64 %42, %36
  br i1 %.not26, label %52, label %43

43:                                               ; preds = %40, %35
  %44 = getelementptr inbounds i8, ptr %3, i64 8
  %45 = load ptr, ptr %44, align 8
  tail call void %45(ptr noundef %3, ptr noundef %38) #7
  store ptr null, ptr %37, align 8
  %46 = load ptr, ptr %3, align 8
  %47 = tail call ptr %46(ptr noundef nonnull %3, i64 noundef %36) #7
  store ptr %47, ptr %37, align 8
  %48 = icmp eq ptr %47, null
  br i1 %48, label %49, label %52

49:                                               ; preds = %43
  %50 = load ptr, ptr %44, align 8
  %51 = load ptr, ptr %20, align 8
  tail call void %50(ptr noundef nonnull %3, ptr noundef %51) #7
  store ptr null, ptr %20, align 8
  br label %LzmaDec_AllocateProbs2.exit

52:                                               ; preds = %43, %40
  %53 = getelementptr inbounds i8, ptr %0, i64 56
  store i64 %36, ptr %53, align 8
  store i32 %13, ptr %0, align 8
  %.sroa.3.0..sroa_idx = getelementptr inbounds i8, ptr %0, i64 4
  store i32 %.zext19.i, ptr %.sroa.3.0..sroa_idx, align 4
  %.sroa.5.0..sroa_idx = getelementptr inbounds i8, ptr %0, i64 8
  store i32 %.zext.i, ptr %.sroa.5.0..sroa_idx, align 8
  %.sroa.6.0..sroa_idx = getelementptr inbounds i8, ptr %0, i64 12
  store i32 %spec.store.select.i, ptr %.sroa.6.0..sroa_idx, align 4
  br label %LzmaDec_AllocateProbs2.exit

LzmaDec_AllocateProbs2.exit:                      ; preds = %6, %4, %26, %52, %49
  %.0 = phi i32 [ 2, %49 ], [ 0, %52 ], [ 2, %26 ], [ 4, %4 ], [ 4, %6 ]
  ret i32 %.0
}